target datalayout = "e-m:e-p270:32:32-p271:32:32-p272:64:64-i64:64-i128:128-f80:128-n8:16:32:64-S128"
target triple = "x86_64-pc-linux-gnu"

%"struct.toku::range_buffer::record_header" = type { i8, i8, i8, i8, i16, i16, i8 }
%struct.__toku_dbt = type { ptr, i64, i64, i32 }
%"class.toku::range_buffer" = type <{ %class.memarena, i32, [4 x i8] }>
%class.memarena = type { %"struct.memarena::arena_chunk", ptr, i32, i64, i64 }
%"struct.memarena::arena_chunk" = type { ptr, i64, i64 }

; Function Attrs: mustprogress nounwind uwtable
define noundef zeroext i1 @_ZNK4toku12range_buffer13record_header16left_is_infiniteEv(ptr noundef nonnull align 2 dereferenceable(10) %0) #0 align 2 {
  %2 = alloca ptr, align 8
  store ptr %0, ptr %2, align 8, !tbaa !4
  %3 = load ptr, ptr %2, align 8
  %4 = getelementptr inbounds nuw %"struct.toku::range_buffer::record_header", ptr %3, i32 0, i32 0
  %5 = load i8, ptr %4, align 2, !tbaa !9, !range !13, !noundef !14
  %6 = trunc i8 %5 to i1
  br i1 %6, label %11, label %7

7:                                                ; preds = %1
  %8 = getelementptr inbounds nuw %"struct.toku::range_buffer::record_header", ptr %3, i32 0, i32 1
  %9 = load i8, ptr %8, align 1, !tbaa !15, !range !13, !noundef !14
  %10 = trunc i8 %9 to i1
  br label %11

11:                                               ; preds = %7, %1
  %12 = phi i1 [ true, %1 ], [ %10, %7 ]
  ret i1 %12
}

; Function Attrs: mustprogress uwtable
define void @_ZN4toku12range_buffer13record_header4initEPK10__toku_dbtS4_b(ptr noundef nonnull align 2 dereferenceable(10) %0, ptr noundef %1, ptr noundef %2, i1 noundef zeroext %3) #1 align 2 {
  %5 = alloca ptr, align 8
  %6 = alloca ptr, align 8
  %7 = alloca ptr, align 8
  %8 = alloca i8, align 1
  store ptr %0, ptr %5, align 8, !tbaa !4
  store ptr %1, ptr %6, align 8, !tbaa !18
  store ptr %2, ptr %7, align 8, !tbaa !18
  %9 = zext i1 %3 to i8
  store i8 %9, ptr %8, align 1, !tbaa !20
  %10 = load ptr, ptr %5, align 8
  %11 = load i8, ptr %8, align 1, !tbaa !20, !range !13, !noundef !14
  %12 = trunc i8 %11 to i1
  %13 = getelementptr inbounds nuw %"struct.toku::range_buffer::record_header", ptr %10, i32 0, i32 6
  %14 = zext i1 %12 to i8
  store i8 %14, ptr %13, align 2, !tbaa !21
  %15 = load ptr, ptr %6, align 8, !tbaa !18
  %16 = call noundef ptr @_Z26toku_dbt_negative_infinityv()
  %17 = icmp eq ptr %15, %16
  %18 = getelementptr inbounds nuw %"struct.toku::range_buffer::record_header", ptr %10, i32 0, i32 0
  %19 = zext i1 %17 to i8
  store i8 %19, ptr %18, align 2, !tbaa !9
  %20 = load ptr, ptr %6, align 8, !tbaa !18
  %21 = call noundef ptr @_Z26toku_dbt_positive_infinityv()
  %22 = icmp eq ptr %20, %21
  %23 = getelementptr inbounds nuw %"struct.toku::range_buffer::record_header", ptr %10, i32 0, i32 1
  %24 = zext i1 %22 to i8
  store i8 %24, ptr %23, align 1, !tbaa !15
  %25 = load ptr, ptr %6, align 8, !tbaa !18
  %26 = call noundef zeroext i1 @_Z20toku_dbt_is_infinitePK10__toku_dbt(ptr noundef %25)
  br i1 %26, label %27, label %28

27:                                               ; preds = %4
  br label %32

28:                                               ; preds = %4
  %29 = load ptr, ptr %6, align 8, !tbaa !18
  %30 = getelementptr inbounds nuw %struct.__toku_dbt, ptr %29, i32 0, i32 1
  %31 = load i64, ptr %30, align 8, !tbaa !22
  br label %32

32:                                               ; preds = %28, %27
  %33 = phi i64 [ 0, %27 ], [ %31, %28 ]
  %34 = trunc i64 %33 to i16
  %35 = getelementptr inbounds nuw %"struct.toku::range_buffer::record_header", ptr %10, i32 0, i32 4
  store i16 %34, ptr %35, align 2, !tbaa !26
  %36 = load ptr, ptr %7, align 8, !tbaa !18
  %37 = icmp ne ptr %36, null
  br i1 %37, label %38, label %60

38:                                               ; preds = %32
  %39 = load ptr, ptr %7, align 8, !tbaa !18
  %40 = call noundef ptr @_Z26toku_dbt_negative_infinityv()
  %41 = icmp eq ptr %39, %40
  %42 = getelementptr inbounds nuw %"struct.toku::range_buffer::record_header", ptr %10, i32 0, i32 3
  %43 = zext i1 %41 to i8
  store i8 %43, ptr %42, align 1, !tbaa !16
  %44 = load ptr, ptr %7, align 8, !tbaa !18
  %45 = call noundef ptr @_Z26toku_dbt_positive_infinityv()
  %46 = icmp eq ptr %44, %45
  %47 = getelementptr inbounds nuw %"struct.toku::range_buffer::record_header", ptr %10, i32 0, i32 2
  %48 = zext i1 %46 to i8
  store i8 %48, ptr %47, align 2, !tbaa !17
  %49 = load ptr, ptr %7, align 8, !tbaa !18
  %50 = call noundef zeroext i1 @_Z20toku_dbt_is_infinitePK10__toku_dbt(ptr noundef %49)
  br i1 %50, label %51, label %52

51:                                               ; preds = %38
  br label %56

52:                                               ; preds = %38
  %53 = load ptr, ptr %7, align 8, !tbaa !18
  %54 = getelementptr inbounds nuw %struct.__toku_dbt, ptr %53, i32 0, i32 1
  %55 = load i64, ptr %54, align 8, !tbaa !22
  br label %56

56:                                               ; preds = %52, %51
  %57 = phi i64 [ 0, %51 ], [ %55, %52 ]
  %58 = trunc i64 %57 to i16
  %59 = getelementptr inbounds nuw %"struct.toku::range_buffer::record_header", ptr %10, i32 0, i32 5
  store i16 %58, ptr %59, align 2, !tbaa !27
  br label %72

60:                                               ; preds = %32
  %61 = getelementptr inbounds nuw %"struct.toku::range_buffer::record_header", ptr %10, i32 0, i32 0
  %62 = load i8, ptr %61, align 2, !tbaa !9, !range !13, !noundef !14
  %63 = trunc i8 %62 to i1
  %64 = getelementptr inbounds nuw %"struct.toku::range_buffer::record_header", ptr %10, i32 0, i32 3
  %65 = zext i1 %63 to i8
  store i8 %65, ptr %64, align 1, !tbaa !16
  %66 = getelementptr inbounds nuw %"struct.toku::range_buffer::record_header", ptr %10, i32 0, i32 1
  %67 = load i8, ptr %66, align 1, !tbaa !15, !range !13, !noundef !14
  %68 = trunc i8 %67 to i1
  %69 = getelementptr inbounds nuw %"struct.toku::range_buffer::record_header", ptr %10, i32 0, i32 2
  %70 = zext i1 %68 to i8
  store i8 %70, ptr %69, align 2, !tbaa !17
  %71 = getelementptr inbounds nuw %"struct.toku::range_buffer::record_header", ptr %10, i32 0, i32 5
  store i16 0, ptr %71, align 2, !tbaa !27
  br label %72

72:                                               ; preds = %60, %56
  ret void
}

; Function Attrs: mustprogress uwtable
define void @_ZN4toku12range_buffer12append_pointEPK10__toku_dbtb(ptr noundef nonnull align 8 dereferenceable(60) %0, ptr noundef %1, i1 noundef zeroext %2) #1 align 2 {
  %4 = alloca ptr, align 8
  %5 = alloca ptr, align 8
  %6 = alloca i8, align 1
  %7 = alloca i64, align 8
  %8 = alloca ptr, align 8
  %9 = alloca %"struct.toku::range_buffer::record_header", align 2
  store ptr %0, ptr %4, align 8, !tbaa !57
  store ptr %1, ptr %5, align 8, !tbaa !18
  %10 = zext i1 %2 to i8
  store i8 %10, ptr %6, align 1, !tbaa !20
  %11 = load ptr, ptr %4, align 8
  call void @llvm.lifetime.start.p0(i64 8, ptr %7) #5
  %12 = load ptr, ptr %5, align 8, !tbaa !18
  %13 = getelementptr inbounds nuw %struct.__toku_dbt, ptr %12, i32 0, i32 1
  %14 = load i64, ptr %13, align 8, !tbaa !22
  %15 = add i64 10, %14
  store i64 %15, ptr %7, align 8, !tbaa !39
  call void @llvm.lifetime.start.p0(i64 8, ptr %8) #5
  %16 = getelementptr inbounds nuw %"class.toku::range_buffer", ptr %11, i32 0, i32 0
  %17 = load i64, ptr %7, align 8, !tbaa !39
  %18 = call noundef ptr @_ZN8memarena17malloc_from_arenaEm(ptr noundef nonnull align 8 dereferenceable(56) %16, i64 noundef %17)
  store ptr %18, ptr %8, align 8, !tbaa !37
  call void @llvm.lifetime.start.p0(i64 10, ptr %9) #5
  %19 = load ptr, ptr %5, align 8, !tbaa !18
  %20 = load i8, ptr %6, align 1, !tbaa !20, !range !13, !noundef !14
  %21 = trunc i8 %20 to i1
  call void @_ZN4toku12range_buffer13record_header4initEPK10__toku_dbtS4_b(ptr noundef nonnull align 2 dereferenceable(10) %9, ptr noundef %19, ptr noundef null, i1 noundef zeroext %21)
  %22 = load ptr, ptr %8, align 8, !tbaa !37
  call void @llvm.memcpy.p0.p0.i64(ptr align 1 %22, ptr align 2 %9, i64 10, i1 false)
  %23 = load ptr, ptr %8, align 8, !tbaa !37
  %24 = getelementptr inbounds nuw i8, ptr %23, i64 10
  store ptr %24, ptr %8, align 8, !tbaa !37
  %25 = call noundef zeroext i1 @_ZNK4toku12range_buffer13record_header16left_is_infiniteEv(ptr noundef nonnull align 2 dereferenceable(10) %9)
  br i1 %25, label %34, label %26

26:                                               ; preds = %3
  %27 = load ptr, ptr %8, align 8, !tbaa !37
  %28 = load ptr, ptr %5, align 8, !tbaa !18
  %29 = getelementptr inbounds nuw %struct.__toku_dbt, ptr %28, i32 0, i32 0
  %30 = load ptr, ptr %29, align 8, !tbaa !64
  %31 = load ptr, ptr %5, align 8, !tbaa !18
  %32 = getelementptr inbounds nuw %struct.__toku_dbt, ptr %31, i32 0, i32 1
  %33 = load i64, ptr %32, align 8, !tbaa !22
  call void @llvm.memcpy.p0.p0.i64(ptr align 1 %27, ptr align 1 %30, i64 %33, i1 false)
  br label %34

34:                                               ; preds = %26, %3
  call void @llvm.lifetime.end.p0(i64 10, ptr %9) #5
  call void @llvm.lifetime.end.p0(i64 8, ptr %8) #5
  call void @llvm.lifetime.end.p0(i64 8, ptr %7) #5
  ret void
}