; Function Attrs: mustprogress uwtable
define void @_ZN4toku12range_buffer12append_pointEPK10__toku_dbtb(ptr noundef nonnull align 8 dereferenceable(60) %0, ptr noundef %1, i1 noundef zeroext %2) local_unnamed_addr #1 align 2 {
  %4 = getelementptr inbounds nuw i8, ptr %1, i64 8
  %5 = load i64, ptr %4, align 8, !tbaa !15
  %6 = add i64 %5, 10
  %7 = tail call noundef ptr @_ZN8memarena17malloc_from_arenaEm(ptr noundef nonnull align 8 dereferenceable(56) %0, i64 noundef %6)
  %8 = zext i1 %2 to i8
  %9 = tail call noundef ptr @_Z26toku_dbt_negative_infinityv()
  %10 = icmp eq ptr %1, %9
  %11 = zext i1 %10 to i8
  %12 = tail call noundef ptr @_Z26toku_dbt_positive_infinityv()
  %13 = icmp eq ptr %1, %12
  %14 = zext i1 %13 to i8
  %15 = tail call noundef zeroext i1 @_Z20toku_dbt_is_infinitePK10__toku_dbt(ptr noundef %1)
  br i1 %15, label %_ZN4toku12range_buffer13record_header4initEPK10__toku_dbtS4_b.exit, label %16

16:                                               ; preds = %3
  %17 = load i64, ptr %4, align 8, !tbaa !15
  %18 = trunc i64 %17 to i16
  br label %_ZN4toku12range_buffer13record_header4initEPK10__toku_dbtS4_b.exit

_ZN4toku12range_buffer13record_header4initEPK10__toku_dbtS4_b.exit: ; preds = %3, %16
  %19 = phi i16 [ %18, %16 ], [ 0, %3 ]
  store i8 %11, ptr %7, align 1
  %.sroa.6.0..sroa_idx = getelementptr inbounds nuw i8, ptr %7, i64 1
  store i8 %14, ptr %.sroa.6.0..sroa_idx, align 1
  %.sroa.9.0..sroa_idx = getelementptr inbounds nuw i8, ptr %7, i64 2
  store i8 %14, ptr %.sroa.9.0..sroa_idx, align 1
  %.sroa.10.0..sroa_idx = getelementptr inbounds nuw i8, ptr %7, i64 3
  store i8 %11, ptr %.sroa.10.0..sroa_idx, align 1
  %.sroa.11.0..sroa_idx = getelementptr inbounds nuw i8, ptr %7, i64 4
  store i16 %19, ptr %.sroa.11.0..sroa_idx, align 1
  %.sroa.12.0..sroa_idx = getelementptr inbounds nuw i8, ptr %7, i64 6
  store i16 0, ptr %.sroa.12.0..sroa_idx, align 1
  %.sroa.13.0..sroa_idx = getelementptr inbounds nuw i8, ptr %7, i64 8
  store i8 %8, ptr %.sroa.13.0..sroa_idx, align 1
  %20 = or i1 %10, %13
  br i1 %20, label %25, label %21

21:                                               ; preds = %_ZN4toku12range_buffer13record_header4initEPK10__toku_dbtS4_b.exit
  %22 = getelementptr inbounds nuw i8, ptr %7, i64 10
  %23 = load ptr, ptr %1, align 8, !tbaa !45
  %24 = load i64, ptr %4, align 8, !tbaa !15
  tail call void @llvm.memcpy.p0.p0.i64(ptr nonnull align 1 %22, ptr align 1 %23, i64 %24, i1 false)
  br label %25

25:                                               ; preds = %21, %_ZN4toku12range_buffer13record_header4initEPK10__toku_dbtS4_b.exit
  ret void
}